; Function Attrs: mustprogress nofree norecurse nosync nounwind willreturn memory(argmem: readwrite) uwtable
define dso_local noundef zeroext i1 @_ZN5clang8DeclSpec21setFunctionSpecInlineENS_14SourceLocationERPKcRj(ptr nocapture noundef nonnull align 8 dereferenceable(360) %0, i32 %1, ptr nocapture noundef nonnull writeonly align 8 dereferenceable(8) %2, ptr nocapture noundef nonnull writeonly align 4 dereferenceable(4) %3) local_unnamed_addr #0 align 2 {
  %5 = load i64, ptr %0, align 8
  %6 = and i64 %5, 2147483648
  %.not = icmp ne i64 %6, 0
  br i1 %.not, label %7, label %8

7:                                                ; preds = %4
  store i32 141, ptr %3, align 4
  store ptr @.str.96, ptr %2, align 8
  br label %11

8:                                                ; preds = %4
  %9 = or disjoint i64 %5, 2147483648
  store i64 %9, ptr %0, align 8
  %10 = getelementptr inbounds nuw i8, ptr %0, i64 304
  store i32 %1, ptr %10, align 8
  br label %11

11:                                               ; preds = %8, %7
  ret i1 %.not
}